; Function Attrs: nounwind sspstrong uwtable
define dso_local range(i64 0, 21) i64 @rb_obj_is_instance_of(i64 noundef %0, i64 noundef %1) #2 {
  %3 = icmp eq i64 %1, 0
  %4 = and i64 %1, 7
  %5 = icmp ne i64 %4, 0
  %6 = or i1 %3, %5
  br i1 %6, label %.thread.i, label %7

7:                                                ; preds = %2
  %8 = inttoptr i64 %1 to ptr
  %9 = load i64, ptr %8, align 8, !tbaa !24
  %10 = trunc i64 %9 to i32
  %11 = and i32 %10, 31
  switch i32 %11, label %.thread.i [
    i32 3, label %class_or_module_required.exit
    i32 2, label %class_or_module_required.exit
    i32 28, label %class_or_module_required.exit
  ]

.thread.i:                                        ; preds = %7, %2
  %12 = load i64, ptr @rb_eTypeError, align 8, !tbaa !7
  tail call void (i64, ptr, ...) @rb_raise(i64 noundef %12, ptr noundef nonnull @.str.6) #24
  unreachable

class_or_module_required.exit:                    ; preds = %7, %7, %7
  %13 = icmp eq i64 %0, 0
  %14 = and i64 %0, 7
  %15 = icmp ne i64 %14, 0
  %16 = or i1 %13, %15
  br i1 %16, label %20, label %17

17:                                               ; preds = %class_or_module_required.exit
  %18 = inttoptr i64 %0 to ptr
  %19 = getelementptr inbounds nuw i8, ptr %18, i64 8
  br label %rb_class_of.exit.i

20:                                               ; preds = %class_or_module_required.exit
  switch i64 %0, label %23 [
    i64 0, label %rb_class_of.exit.i
    i64 4, label %21
    i64 20, label %22
  ]

21:                                               ; preds = %20
  br label %rb_class_of.exit.i

22:                                               ; preds = %20
  br label %rb_class_of.exit.i

23:                                               ; preds = %20
  %24 = and i64 %0, 1
  %.not.i.i = icmp eq i64 %24, 0
  br i1 %.not.i.i, label %25, label %rb_class_of.exit.i

25:                                               ; preds = %23
  %26 = and i64 %0, 254
  %27 = icmp eq i64 %26, 12
  %spec.select.i.i = select i1 %27, ptr @rb_cSymbol, ptr @rb_cFloat
  br label %rb_class_of.exit.i

rb_class_of.exit.i:                               ; preds = %25, %23, %22, %21, %20, %17
  %.0.in.i.i = phi ptr [ @rb_cNilClass, %21 ], [ @rb_cTrueClass, %22 ], [ %19, %17 ], [ @rb_cFalseClass, %20 ], [ @rb_cInteger, %23 ], [ %spec.select.i.i, %25 ]
  %.0.i.i = load i64, ptr %.0.in.i.i, align 8, !tbaa !7
  %.not9.i.i = icmp eq i64 %.0.i.i, 0
  br i1 %.not9.i.i, label %rb_obj_class.exit, label %.lr.ph.i.i

.lr.ph.i.i:                                       ; preds = %rb_class_of.exit.i, %.critedge2.i.i
  %.010.i.i = phi i64 [ %34, %.critedge2.i.i ], [ %.0.i.i, %rb_class_of.exit.i ]
  %28 = and i64 %.010.i.i, 7
  %.not8.i.i = icmp eq i64 %28, 0
  %29 = inttoptr i64 %.010.i.i to ptr
  %.pre.i = load i64, ptr %29, align 8, !tbaa !24
  %30 = and i64 %.pre.i, 8223
  %or.cond.i.i = icmp eq i64 %30, 8194
  %or.cond.i = select i1 %.not8.i.i, i1 %or.cond.i.i, i1 false
  %31 = and i64 %.pre.i, 31
  %32 = icmp eq i64 %31, 28
  %or.cond3.i = select i1 %or.cond.i, i1 true, i1 %32
  br i1 %or.cond3.i, label %.critedge2.i.i, label %rb_obj_class.exit

.critedge2.i.i:                                   ; preds = %.lr.ph.i.i
  %33 = getelementptr inbounds nuw i8, ptr %29, i64 16
  %34 = load i64, ptr %33, align 8, !tbaa !25
  %.not.i1.i = icmp eq i64 %34, 0
  br i1 %.not.i1.i, label %rb_obj_class.exit, label %.lr.ph.i.i, !llvm.loop !26

rb_obj_class.exit:                                ; preds = %.lr.ph.i.i, %.critedge2.i.i, %rb_class_of.exit.i
  %.0.lcssa.i.i = phi i64 [ 0, %rb_class_of.exit.i ], [ %.010.i.i, %.lr.ph.i.i ], [ 0, %.critedge2.i.i ]
  %35 = icmp eq i64 %.0.lcssa.i.i, %1
  %36 = select i1 %35, i64 20, i64 0
  ret i64 %36
}